; Function Attrs: mustprogress uwtable
define hidden void @_ZN30expr_strong_context_simplifierC2ER10smt_paramsR11ast_manager(ptr noundef nonnull align 8 dereferenceable(48) initializes((0, 8)) %0, ptr noundef nonnull align 8 dereferenceable(808) %1, ptr noundef nonnull align 8 dereferenceable(976) %2) unnamed_addr #3 align 2 personality ptr @__gxx_personality_v0 {
  %4 = alloca ptr, align 8
  %5 = alloca %class.params_ref, align 8
  %6 = alloca %class.symbol, align 8
  store ptr %2, ptr %0, align 8, !tbaa !3
  %7 = getelementptr inbounds nuw i8, ptr %0, i64 8
  tail call void @_ZN10arith_utilC1ER11ast_manager(ptr noundef nonnull align 8 dereferenceable(16) %7, ptr noundef nonnull align 8 dereferenceable(976) %2)
  %8 = getelementptr inbounds nuw i8, ptr %0, i64 24
  store ptr null, ptr %8, align 8, !tbaa !157
  %9 = getelementptr inbounds nuw i8, ptr %0, i64 32
  store ptr %2, ptr %9, align 8, !tbaa !3
  %10 = getelementptr inbounds nuw i8, ptr %0, i64 40
  call void @llvm.lifetime.start.p0(i64 8, ptr nonnull %5) #19
  store ptr null, ptr %5, align 8, !tbaa !26
  invoke void @_ZN3smt6kernelC1ER11ast_managerR10smt_paramsRK10params_ref(ptr noundef nonnull align 8 dereferenceable(8) %10, ptr noundef nonnull align 8 dereferenceable(976) %2, ptr noundef nonnull align 8 dereferenceable(808) %1, ptr noundef nonnull align 8 dereferenceable(8) %5)
          to label %11 unwind label %31

11:                                               ; preds = %3
  call void @_ZN10params_refD1Ev(ptr noundef nonnull align 8 dereferenceable(8) %5) #19
  call void @llvm.lifetime.end.p0(i64 8, ptr nonnull %5) #19
  %12 = load ptr, ptr %7, align 8, !tbaa !159
  %13 = invoke noundef ptr @_ZN11ast_manager7mk_sortEiijPK9parameter(ptr noundef nonnull align 8 dereferenceable(976) %12, i32 noundef 5, i32 noundef 1, i32 noundef 0, ptr noundef null)
          to label %_ZN10arith_util6mk_intEv.exit unwind label %33

_ZN10arith_util6mk_intEv.exit:                    ; preds = %11
  call void @llvm.lifetime.start.p0(i64 8, ptr nonnull %6) #19
  store ptr inttoptr (i64 1601669129 to ptr), ptr %6, align 8, !tbaa !160
  %14 = getelementptr inbounds nuw i8, ptr %2, i64 840
  %15 = load ptr, ptr %14, align 8, !tbaa !161
  call void @llvm.lifetime.start.p0(i64 8, ptr nonnull %4)
  store ptr %13, ptr %4, align 8, !tbaa !162
  %16 = invoke noundef ptr @_ZN11ast_manager12mk_func_declERK6symboljPKP4sortS4_P14func_decl_info(ptr noundef nonnull align 8 dereferenceable(976) %2, ptr noundef nonnull align 8 dereferenceable(8) %6, i32 noundef 1, ptr noundef nonnull %4, ptr noundef %15, ptr noundef null)
          to label %17 unwind label %35

17:                                               ; preds = %_ZN10arith_util6mk_intEv.exit
  call void @llvm.lifetime.end.p0(i64 8, ptr nonnull %4)
  %.not.i = icmp eq ptr %16, null
  br i1 %.not.i, label %21, label %_ZN11ast_manager7inc_refEP3ast.exit.i

_ZN11ast_manager7inc_refEP3ast.exit.i:            ; preds = %17
  %18 = getelementptr inbounds nuw i8, ptr %16, i64 8
  %19 = load i32, ptr %18, align 4, !tbaa !51
  %20 = add i32 %19, 1
  store i32 %20, ptr %18, align 4, !tbaa !51
  br label %21

21:                                               ; preds = %_ZN11ast_manager7inc_refEP3ast.exit.i, %17
  %22 = load ptr, ptr %8, align 8, !tbaa !157
  %.not.i4.i = icmp eq ptr %22, null
  br i1 %.not.i4.i, label %30, label %23

23:                                               ; preds = %21
  %24 = load ptr, ptr %9, align 8, !tbaa !163
  %25 = getelementptr inbounds nuw i8, ptr %22, i64 8
  %26 = load i32, ptr %25, align 4, !tbaa !51
  %27 = add i32 %26, -1
  store i32 %27, ptr %25, align 4, !tbaa !51
  %28 = icmp eq i32 %27, 0
  br i1 %28, label %29, label %30

29:                                               ; preds = %23
  invoke void @_ZN11ast_manager11delete_nodeEP3ast(ptr noundef nonnull align 8 dereferenceable(976) %24, ptr noundef nonnull %22)
          to label %30 unwind label %35

30:                                               ; preds = %23, %21, %29
  store ptr %16, ptr %8, align 8, !tbaa !157
  call void @llvm.lifetime.end.p0(i64 8, ptr nonnull %6) #19
  ret void

31:                                               ; preds = %3
  %32 = landingpad { ptr, i32 }
          cleanup
  call void @_ZN10params_refD1Ev(ptr noundef nonnull align 8 dereferenceable(8) %5) #19
  call void @llvm.lifetime.end.p0(i64 8, ptr nonnull %5) #19
  br label %38

33:                                               ; preds = %11
  %34 = landingpad { ptr, i32 }
          cleanup
  br label %37

35:                                               ; preds = %29, %_ZN10arith_util6mk_intEv.exit
  %36 = landingpad { ptr, i32 }
          cleanup
  call void @llvm.lifetime.end.p0(i64 8, ptr nonnull %6) #19
  br label %37

37:                                               ; preds = %35, %33
  %.pn = phi { ptr, i32 } [ %36, %35 ], [ %34, %33 ]
  call void @_ZN3smt6kernelD1Ev(ptr noundef nonnull align 8 dereferenceable(8) %10) #19
  br label %38

38:                                               ; preds = %37, %31
  %.pn.pn = phi { ptr, i32 } [ %.pn, %37 ], [ %32, %31 ]
  call void @_ZN7obj_refI9func_decl11ast_managerED2Ev(ptr noundef nonnull align 8 dereferenceable(16) %8) #19
  resume { ptr, i32 } %.pn.pn
}